target datalayout = "e-m:e-p270:32:32-p271:32:32-p272:64:64-i64:64-i128:128-f80:128-n8:16:32:64-S128"
target triple = "x86_64-pc-linux-gnu"

%"class.glslang::HlslGrammar" = type { %"class.glslang::HlslTokenStream.base", ptr, ptr, i8, ptr }
%"class.glslang::HlslTokenStream.base" = type <{ ptr, %"struct.glslang::HlslToken", ptr, %"class.glslang::TVector", %"class.glslang::TVector.0", %"class.glslang::TVector.4", [2 x %"struct.glslang::HlslToken"], i32, [4 x i8], [2 x %"struct.glslang::HlslToken"], i32 }>
%"struct.glslang::HlslToken" = type { %"struct.glslang::TSourceLoc", i32, %union.anon }
%"struct.glslang::TSourceLoc" = type { ptr, i32, i32, i32 }
%union.anon = type { ptr }
%"class.glslang::TVector" = type { %"class.std::vector" }
%"class.std::vector" = type { %"struct.std::_Vector_base" }
%"struct.std::_Vector_base" = type { %"struct.std::_Vector_base<const glslang::TVector<glslang::HlslToken> *, glslang::pool_allocator<const glslang::TVector<glslang::HlslToken> *>>::_Vector_impl" }
%"struct.std::_Vector_base<const glslang::TVector<glslang::HlslToken> *, glslang::pool_allocator<const glslang::TVector<glslang::HlslToken> *>>::_Vector_impl" = type { %"class.glslang::pool_allocator", %"struct.std::_Vector_base<const glslang::TVector<glslang::HlslToken> *, glslang::pool_allocator<const glslang::TVector<glslang::HlslToken> *>>::_Vector_impl_data" }
%"class.glslang::pool_allocator" = type { ptr }
%"struct.std::_Vector_base<const glslang::TVector<glslang::HlslToken> *, glslang::pool_allocator<const glslang::TVector<glslang::HlslToken> *>>::_Vector_impl_data" = type { ptr, ptr, ptr }
%"class.glslang::TVector.0" = type { %"class.std::vector.1" }
%"class.std::vector.1" = type { %"struct.std::_Vector_base.2" }
%"struct.std::_Vector_base.2" = type { %"struct.std::_Vector_base<int, glslang::pool_allocator<int>>::_Vector_impl" }
%"struct.std::_Vector_base<int, glslang::pool_allocator<int>>::_Vector_impl" = type { %"class.glslang::pool_allocator.3", %"struct.std::_Vector_base<int, glslang::pool_allocator<int>>::_Vector_impl_data" }
%"class.glslang::pool_allocator.3" = type { ptr }
%"struct.std::_Vector_base<int, glslang::pool_allocator<int>>::_Vector_impl_data" = type { ptr, ptr, ptr }
%"class.glslang::TVector.4" = type { %"class.std::vector.5" }
%"class.std::vector.5" = type { %"struct.std::_Vector_base.6" }
%"struct.std::_Vector_base.6" = type { %"struct.std::_Vector_base<glslang::HlslToken, glslang::pool_allocator<glslang::HlslToken>>::_Vector_impl" }
%"struct.std::_Vector_base<glslang::HlslToken, glslang::pool_allocator<glslang::HlslToken>>::_Vector_impl" = type { %"class.glslang::pool_allocator.7", %"struct.std::_Vector_base<glslang::HlslToken, glslang::pool_allocator<glslang::HlslToken>>::_Vector_impl_data" }
%"class.glslang::pool_allocator.7" = type { ptr }
%"struct.std::_Vector_base<glslang::HlslToken, glslang::pool_allocator<glslang::HlslToken>>::_Vector_impl_data" = type { ptr, ptr, ptr }
%"class.glslang::HlslTokenStream" = type <{ ptr, %"struct.glslang::HlslToken", ptr, %"class.glslang::TVector", %"class.glslang::TVector.0", %"class.glslang::TVector.4", [2 x %"struct.glslang::HlslToken"], i32, [4 x i8], [2 x %"struct.glslang::HlslToken"], i32, [4 x i8] }>
%"class.glslang::TQualifier" = type <{ ptr, i64, i8, [3 x i8], i32, i32, i64, i64, i8, i8, i8, i8, i8, [3 x i8], i32, i8, i8, i8, i8, i32, ptr, i8, i8, [6 x i8] }>

@.str = private unnamed_addr constant [9 x i8] c"Expected\00", align 1
@.str.1 = private unnamed_addr constant [1 x i8] zeroinitializer, align 1
@.str.77 = private unnamed_addr constant [42 x i8] c"assignment expression in initializer list\00", align 1
@.str.78 = private unnamed_addr constant [7 x i8] c", or }\00", align 1

; Function Attrs: mustprogress nounwind uwtable
define void @_ZN7glslang11HlslGrammar8expectedEPKc(ptr noundef nonnull align 8 dereferenceable(360) %0, ptr noundef %1) #0 align 2 {
  %3 = alloca ptr, align 8
  %4 = alloca ptr, align 8
  store ptr %0, ptr %3, align 8
  store ptr %1, ptr %4, align 8
  %5 = load ptr, ptr %3, align 8
  %6 = getelementptr inbounds %"class.glslang::HlslGrammar", ptr %5, i32 0, i32 1
  %7 = load ptr, ptr %6, align 8
  %8 = getelementptr inbounds %"class.glslang::HlslTokenStream", ptr %5, i32 0, i32 1
  %9 = getelementptr inbounds %"struct.glslang::HlslToken", ptr %8, i32 0, i32 0
  %10 = load ptr, ptr %4, align 8
  %11 = load ptr, ptr %7, align 8
  %12 = getelementptr inbounds ptr, ptr %11, i64 43
  %13 = load ptr, ptr %12, align 8
  call void (ptr, ptr, ptr, ptr, ptr, ...) %13(ptr noundef nonnull align 8 dereferenceable(1280) %7, ptr noundef nonnull align 8 dereferenceable(24) %9, ptr noundef @.str, ptr noundef %10, ptr noundef @.str.1)
  ret void
}

; Function Attrs: mustprogress nounwind uwtable
define noundef zeroext i1 @_ZN7glslang11HlslGrammar17acceptInitializerERPNS_12TIntermTypedE(ptr noundef nonnull align 8 dereferenceable(360) %0, ptr noundef nonnull align 8 dereferenceable(8) %1) #0 align 2 {
  %3 = alloca i1, align 1
  %4 = alloca ptr, align 8
  %5 = alloca ptr, align 8
  %6 = alloca %"struct.glslang::TSourceLoc", align 8
  %7 = alloca ptr, align 8
  %8 = alloca i8, align 1
  store ptr %0, ptr %4, align 8
  store ptr %1, ptr %5, align 8
  %9 = load ptr, ptr %4, align 8
  %10 = call noundef zeroext i1 @_ZN7glslang15HlslTokenStream16acceptTokenClassENS_15EHlslTokenClassE(ptr noundef nonnull align 8 dereferenceable(324) %9, i32 noundef 359)
  br i1 %10, label %12, label %11

11:                                               ; preds = %2
  store i1 false, ptr %3, align 1
  br label %97

12:                                               ; preds = %2
  %13 = getelementptr inbounds %"class.glslang::HlslTokenStream", ptr %9, i32 0, i32 1
  %14 = getelementptr inbounds %"struct.glslang::HlslToken", ptr %13, i32 0, i32 0
  call void @llvm.memcpy.p0.p0.i64(ptr align 8 %6, ptr align 8 %14, i64 24, i1 false)
  %15 = call noundef zeroext i1 @_ZN7glslang15HlslTokenStream16acceptTokenClassENS_15EHlslTokenClassE(ptr noundef nonnull align 8 dereferenceable(324) %9, i32 noundef 360)
  br i1 %15, label %16, label %21

16:                                               ; preds = %12
  %17 = getelementptr inbounds %"class.glslang::HlslGrammar", ptr %9, i32 0, i32 2
  %18 = load ptr, ptr %17, align 8
  %19 = call noundef ptr @_ZN7glslang13TIntermediate13makeAggregateERKNS_10TSourceLocE(ptr noundef nonnull align 8 dereferenceable(2024) %18, ptr noundef nonnull align 8 dereferenceable(24) %6)
  %20 = load ptr, ptr %5, align 8
  store ptr %19, ptr %20, align 8
  store i1 true, ptr %3, align 1
  br label %97

21:                                               ; preds = %12
  %22 = load ptr, ptr %5, align 8
  store ptr null, ptr %22, align 8
  br label %23

23:                                               ; preds = %95, %21
  %24 = call noundef zeroext i1 @_ZN7glslang11HlslGrammar26acceptAssignmentExpressionERPNS_12TIntermTypedE(ptr noundef nonnull align 8 dereferenceable(360) %9, ptr noundef nonnull align 8 dereferenceable(8) %7)
  br i1 %24, label %26, label %25

25:                                               ; preds = %23
  call void @_ZN7glslang11HlslGrammar8expectedEPKc(ptr noundef nonnull align 8 dereferenceable(360) %9, ptr noundef @.str.77)
  store i1 false, ptr %3, align 1
  br label %97

26:                                               ; preds = %23
  %27 = load ptr, ptr %5, align 8
  %28 = load ptr, ptr %27, align 8
  %29 = icmp eq ptr %28, null
  %30 = zext i1 %29 to i8
  store i8 %30, ptr %8, align 1
  %31 = getelementptr inbounds %"class.glslang::HlslGrammar", ptr %9, i32 0, i32 2
  %32 = load ptr, ptr %31, align 8
  %33 = load ptr, ptr %5, align 8
  %34 = load ptr, ptr %33, align 8
  %35 = load ptr, ptr %7, align 8
  %36 = call noundef ptr @_ZN7glslang13TIntermediate13growAggregateEP11TIntermNodeS2_RKNS_10TSourceLocE(ptr noundef nonnull align 8 dereferenceable(2024) %32, ptr noundef %34, ptr noundef %35, ptr noundef nonnull align 8 dereferenceable(24) %6)
  %37 = load ptr, ptr %5, align 8
  store ptr %36, ptr %37, align 8
  %38 = load i8, ptr %8, align 1
  %39 = trunc i8 %38 to i1
  br i1 %39, label %40, label %62

40:                                               ; preds = %26
  %41 = load ptr, ptr %7, align 8
  %42 = load ptr, ptr %41, align 8
  %43 = getelementptr inbounds ptr, ptr %42, i64 33
  %44 = load ptr, ptr %43, align 8
  %45 = call noundef nonnull align 8 dereferenceable(80) ptr %44(ptr noundef nonnull align 8 dereferenceable(184) %41)
  %46 = getelementptr inbounds %"class.glslang::TQualifier", ptr %45, i32 0, i32 1
  %47 = load i64, ptr %46, align 8
  %48 = and i64 %47, 127
  %49 = trunc i64 %48 to i32
  %50 = icmp eq i32 %49, 2
  br i1 %50, label %51, label %62

51:                                               ; preds = %40
  %52 = load ptr, ptr %5, align 8
  %53 = load ptr, ptr %52, align 8
  %54 = load ptr, ptr %53, align 8
  %55 = getelementptr inbounds ptr, ptr %54, i64 33
  %56 = load ptr, ptr %55, align 8
  %57 = call noundef nonnull align 8 dereferenceable(80) ptr %56(ptr noundef nonnull align 8 dereferenceable(184) %53)
  %58 = getelementptr inbounds %"class.glslang::TQualifier", ptr %57, i32 0, i32 1
  %59 = load i64, ptr %58, align 8
  %60 = and i64 %59, -128
  %61 = or i64 %60, 2
  store i64 %61, ptr %58, align 8
  br label %85

62:                                               ; preds = %40, %26
  %63 = load ptr, ptr %7, align 8
  %64 = load ptr, ptr %63, align 8
  %65 = getelementptr inbounds ptr, ptr %64, i64 33
  %66 = load ptr, ptr %65, align 8
  %67 = call noundef nonnull align 8 dereferenceable(80) ptr %66(ptr noundef nonnull align 8 dereferenceable(184) %63)
  %68 = getelementptr inbounds %"class.glslang::TQualifier", ptr %67, i32 0, i32 1
  %69 = load i64, ptr %68, align 8
  %70 = and i64 %69, 127
  %71 = trunc i64 %70 to i32
  %72 = icmp ne i32 %71, 2
  br i1 %72, label %73, label %84

73:                                               ; preds = %62
  %74 = load ptr, ptr %5, align 8
  %75 = load ptr, ptr %74, align 8
  %76 = load ptr, ptr %75, align 8
  %77 = getelementptr inbounds ptr, ptr %76, i64 33
  %78 = load ptr, ptr %77, align 8
  %79 = call noundef nonnull align 8 dereferenceable(80) ptr %78(ptr noundef nonnull align 8 dereferenceable(184) %75)
  %80 = getelementptr inbounds %"class.glslang::TQualifier", ptr %79, i32 0, i32 1
  %81 = load i64, ptr %80, align 8
  %82 = and i64 %81, -128
  %83 = or i64 %82, 0
  store i64 %83, ptr %80, align 8
  br label %84

84:                                               ; preds = %73, %62
  br label %85

85:                                               ; preds = %84, %51
  %86 = call noundef zeroext i1 @_ZN7glslang15HlslTokenStream16acceptTokenClassENS_15EHlslTokenClassE(ptr noundef nonnull align 8 dereferenceable(324) %9, i32 noundef 362)
  br i1 %86, label %87, label %91

87:                                               ; preds = %85
  %88 = call noundef zeroext i1 @_ZN7glslang15HlslTokenStream16acceptTokenClassENS_15EHlslTokenClassE(ptr noundef nonnull align 8 dereferenceable(324) %9, i32 noundef 360)
  br i1 %88, label %89, label %90

89:                                               ; preds = %87
  store i1 true, ptr %3, align 1
  br label %97

90:                                               ; preds = %87
  br label %95

91:                                               ; preds = %85
  %92 = call noundef zeroext i1 @_ZN7glslang15HlslTokenStream16acceptTokenClassENS_15EHlslTokenClassE(ptr noundef nonnull align 8 dereferenceable(324) %9, i32 noundef 360)
  br i1 %92, label %93, label %94

93:                                               ; preds = %91
  store i1 true, ptr %3, align 1
  br label %97

94:                                               ; preds = %91
  call void @_ZN7glslang11HlslGrammar8expectedEPKc(ptr noundef nonnull align 8 dereferenceable(360) %9, ptr noundef @.str.78)
  store i1 false, ptr %3, align 1
  br label %97

95:                                               ; preds = %90
  br i1 true, label %23, label %96, !llvm.loop !27

96:                                               ; preds = %95
  call void @llvm.trap()
  unreachable

97:                                               ; preds = %94, %93, %89, %25, %16, %11
  %98 = load i1, ptr %3, align 1
  ret i1 %98
}