; Function Attrs: mustprogress nounwind uwtable
define noundef zeroext i1 @_ZN7glslang11HlslGrammar17acceptInitializerERPNS_12TIntermTypedE(ptr noundef nonnull align 8 dereferenceable(360) %0, ptr nocapture noundef nonnull align 8 dereferenceable(8) %1) local_unnamed_addr #0 align 2 {
  %3 = alloca %"struct.glslang::TSourceLoc", align 8
  %4 = alloca ptr, align 8
  %5 = tail call noundef zeroext i1 @_ZN7glslang15HlslTokenStream16acceptTokenClassENS_15EHlslTokenClassE(ptr noundef nonnull align 8 dereferenceable(324) %0, i32 noundef 359) #16
  br i1 %5, label %6, label %.loopexit

6:                                                ; preds = %2
  %7 = getelementptr inbounds i8, ptr %0, i64 8
  call void @llvm.memcpy.p0.p0.i64(ptr noundef nonnull align 8 dereferenceable(24) %3, ptr noundef nonnull align 8 dereferenceable(24) %7, i64 24, i1 false)
  %8 = tail call noundef zeroext i1 @_ZN7glslang15HlslTokenStream16acceptTokenClassENS_15EHlslTokenClassE(ptr noundef nonnull align 8 dereferenceable(324) %0, i32 noundef 360) #16
  br i1 %8, label %9, label %13

9:                                                ; preds = %6
  %10 = getelementptr inbounds i8, ptr %0, i64 336
  %11 = load ptr, ptr %10, align 8
  %12 = call noundef ptr @_ZN7glslang13TIntermediate13makeAggregateERKNS_10TSourceLocE(ptr noundef nonnull align 8 dereferenceable(2024) %11, ptr noundef nonnull align 8 dereferenceable(24) %3) #16
  store ptr %12, ptr %1, align 8
  br label %.loopexit

13:                                               ; preds = %6
  store ptr null, ptr %1, align 8
  %14 = getelementptr inbounds i8, ptr %0, i64 336
  br label %15

15:                                               ; preds = %70, %13
  %16 = call noundef zeroext i1 @_ZN7glslang11HlslGrammar26acceptAssignmentExpressionERPNS_12TIntermTypedE(ptr noundef nonnull align 8 dereferenceable(360) %0, ptr noundef nonnull align 8 dereferenceable(8) %4)
  br i1 %16, label %23, label %17

17:                                               ; preds = %15
  %18 = getelementptr inbounds i8, ptr %0, i64 328
  %19 = load ptr, ptr %18, align 8
  %20 = load ptr, ptr %19, align 8
  %21 = getelementptr inbounds i8, ptr %20, i64 344
  %22 = load ptr, ptr %21, align 8
  call void (ptr, ptr, ptr, ptr, ptr, ...) %22(ptr noundef nonnull align 8 dereferenceable(1280) %19, ptr noundef nonnull align 8 dereferenceable(24) %7, ptr noundef nonnull @.str, ptr noundef nonnull @.str.77, ptr noundef nonnull @.str.1) #16
  br label %.loopexit

23:                                               ; preds = %15
  %24 = load ptr, ptr %1, align 8
  %25 = icmp eq ptr %24, null
  %26 = load ptr, ptr %14, align 8
  %27 = load ptr, ptr %4, align 8
  %28 = call noundef ptr @_ZN7glslang13TIntermediate13growAggregateEP11TIntermNodeS2_RKNS_10TSourceLocE(ptr noundef nonnull align 8 dereferenceable(2024) %26, ptr noundef %24, ptr noundef %27, ptr noundef nonnull align 8 dereferenceable(24) %3) #16
  store ptr %28, ptr %1, align 8
  br i1 %25, label %29, label %49

29:                                               ; preds = %23
  %30 = load ptr, ptr %4, align 8
  %31 = load ptr, ptr %30, align 8
  %32 = getelementptr inbounds i8, ptr %31, i64 264
  %33 = load ptr, ptr %32, align 8
  %34 = call noundef nonnull align 8 dereferenceable(80) ptr %33(ptr noundef nonnull align 8 dereferenceable(184) %30) #16
  %35 = getelementptr inbounds i8, ptr %34, i64 8
  %36 = load i64, ptr %35, align 8
  %37 = and i64 %36, 127
  %38 = icmp eq i64 %37, 2
  br i1 %38, label %39, label %49

39:                                               ; preds = %29
  %40 = load ptr, ptr %1, align 8
  %41 = load ptr, ptr %40, align 8
  %42 = getelementptr inbounds i8, ptr %41, i64 264
  %43 = load ptr, ptr %42, align 8
  %44 = call noundef nonnull align 8 dereferenceable(80) ptr %43(ptr noundef nonnull align 8 dereferenceable(184) %40) #16
  %45 = getelementptr inbounds i8, ptr %44, i64 8
  %46 = load i64, ptr %45, align 8
  %47 = and i64 %46, -128
  %48 = or disjoint i64 %47, 2
  store i64 %48, ptr %45, align 8
  br label %67

49:                                               ; preds = %29, %23
  %50 = load ptr, ptr %4, align 8
  %51 = load ptr, ptr %50, align 8
  %52 = getelementptr inbounds i8, ptr %51, i64 264
  %53 = load ptr, ptr %52, align 8
  %54 = call noundef nonnull align 8 dereferenceable(80) ptr %53(ptr noundef nonnull align 8 dereferenceable(184) %50) #16
  %55 = getelementptr inbounds i8, ptr %54, i64 8
  %56 = load i64, ptr %55, align 8
  %57 = and i64 %56, 127
  %.not = icmp eq i64 %57, 2
  br i1 %.not, label %67, label %58

58:                                               ; preds = %49
  %59 = load ptr, ptr %1, align 8
  %60 = load ptr, ptr %59, align 8
  %61 = getelementptr inbounds i8, ptr %60, i64 264
  %62 = load ptr, ptr %61, align 8
  %63 = call noundef nonnull align 8 dereferenceable(80) ptr %62(ptr noundef nonnull align 8 dereferenceable(184) %59) #16
  %64 = getelementptr inbounds i8, ptr %63, i64 8
  %65 = load i64, ptr %64, align 8
  %66 = and i64 %65, -128
  store i64 %66, ptr %64, align 8
  br label %67

67:                                               ; preds = %49, %58, %39
  %68 = call noundef zeroext i1 @_ZN7glslang15HlslTokenStream16acceptTokenClassENS_15EHlslTokenClassE(ptr noundef nonnull align 8 dereferenceable(324) %0, i32 noundef 362) #16
  %69 = call noundef zeroext i1 @_ZN7glslang15HlslTokenStream16acceptTokenClassENS_15EHlslTokenClassE(ptr noundef nonnull align 8 dereferenceable(324) %0, i32 noundef 360) #16
  br i1 %68, label %70, label %71

70:                                               ; preds = %67
  br i1 %69, label %.loopexit, label %15, !llvm.loop !56

71:                                               ; preds = %67
  br i1 %69, label %.loopexit, label %72

72:                                               ; preds = %71
  %73 = getelementptr inbounds i8, ptr %0, i64 328
  %74 = load ptr, ptr %73, align 8
  %75 = load ptr, ptr %74, align 8
  %76 = getelementptr inbounds i8, ptr %75, i64 344
  %77 = load ptr, ptr %76, align 8
  call void (ptr, ptr, ptr, ptr, ptr, ...) %77(ptr noundef nonnull align 8 dereferenceable(1280) %74, ptr noundef nonnull align 8 dereferenceable(24) %7, ptr noundef nonnull @.str, ptr noundef nonnull @.str.78, ptr noundef nonnull @.str.1) #16
  br label %.loopexit

.loopexit:                                        ; preds = %70, %71, %2, %72, %17, %9
  %.0 = phi i1 [ true, %9 ], [ false, %72 ], [ false, %17 ], [ false, %2 ], [ true, %71 ], [ true, %70 ]
  ret i1 %.0
}